target datalayout = "e-m:e-p270:32:32-p271:32:32-p272:64:64-i64:64-i128:128-f80:128-n8:16:32:64-S128"
target triple = "x86_64-pc-linux-gnu"

%class.ExportObjectModel = type { %class.QAbstractTableModel, %class.QList, %struct._export_object_list_t, %struct.export_object_list_gui_t, ptr }
%class.QAbstractTableModel = type { %class.QAbstractItemModel }
%class.QAbstractItemModel = type { %class.QObject }
%class.QObject = type { ptr, %class.QScopedPointer }
%class.QScopedPointer = type { ptr }
%class.QList = type { %struct.QArrayDataPointer }
%struct.QArrayDataPointer = type { ptr, ptr, i64 }
%struct._export_object_list_t = type { ptr, ptr, ptr }
%struct.export_object_list_gui_t = type { ptr }

@_ZTV17ExportObjectModel = external unnamed_addr constant { [51 x ptr] }, align 8

; Function Attrs: mustprogress nounwind uwtable
define linkonce_odr void @_ZN17QArrayDataPointerI8QVariantEC2Ev(ptr noundef nonnull align 8 dereferenceable(24) %0) unnamed_addr #2 comdat align 2 {
  %2 = alloca ptr, align 8
  store ptr %0, ptr %2, align 8
  %3 = load ptr, ptr %2, align 8
  %4 = getelementptr inbounds %struct.QArrayDataPointer, ptr %3, i32 0, i32 0
  store ptr null, ptr %4, align 8
  %5 = getelementptr inbounds %struct.QArrayDataPointer, ptr %3, i32 0, i32 1
  store ptr null, ptr %5, align 8
  %6 = getelementptr inbounds %struct.QArrayDataPointer, ptr %3, i32 0, i32 2
  store i64 0, ptr %6, align 8
  ret void
}

; Function Attrs: mustprogress nounwind uwtable
define linkonce_odr void @_ZN5QListI8QVariantEC2Ev(ptr noundef nonnull align 8 dereferenceable(24) %0) unnamed_addr #2 comdat align 2 {
  %2 = alloca ptr, align 8
  store ptr %0, ptr %2, align 8
  %3 = load ptr, ptr %2, align 8
  %4 = getelementptr inbounds %class.QList, ptr %3, i32 0, i32 0
  call void @_ZN17QArrayDataPointerI8QVariantEC2Ev(ptr noundef nonnull align 8 dereferenceable(24) %4) #9
  ret void
}

; Function Attrs: mustprogress uwtable
define void @_ZN17ExportObjectModelC2EP11register_eoP7QObject(ptr noundef nonnull align 8 dereferenceable(80) %0, ptr noundef %1, ptr noundef %2) unnamed_addr #0 align 2 {
  %4 = alloca ptr, align 8
  %5 = alloca ptr, align 8
  %6 = alloca ptr, align 8
  store ptr %0, ptr %4, align 8
  store ptr %1, ptr %5, align 8
  store ptr %2, ptr %6, align 8
  %7 = load ptr, ptr %4, align 8
  %8 = load ptr, ptr %6, align 8
  call void @_ZN19QAbstractTableModelC2EP7QObject(ptr noundef nonnull align 8 dereferenceable(16) %7, ptr noundef %8)
  store ptr getelementptr inbounds ({ [51 x ptr] }, ptr @_ZTV17ExportObjectModel, i32 0, i32 0, i32 2), ptr %7, align 8
  %9 = getelementptr inbounds %class.ExportObjectModel, ptr %7, i32 0, i32 1
  call void @_ZN5QListI8QVariantEC2Ev(ptr noundef nonnull align 8 dereferenceable(24) %9) #9
  %10 = getelementptr inbounds %class.ExportObjectModel, ptr %7, i32 0, i32 4
  %11 = load ptr, ptr %5, align 8
  store ptr %11, ptr %10, align 8
  %12 = getelementptr inbounds %class.ExportObjectModel, ptr %7, i32 0, i32 3
  %13 = getelementptr inbounds %struct.export_object_list_gui_t, ptr %12, i32 0, i32 0
  store ptr %7, ptr %13, align 8
  %14 = getelementptr inbounds %class.ExportObjectModel, ptr %7, i32 0, i32 2
  %15 = getelementptr inbounds %struct._export_object_list_t, ptr %14, i32 0, i32 0
  store ptr @_ZL21object_list_add_entryPvP22_export_object_entry_t, ptr %15, align 8
  %16 = getelementptr inbounds %class.ExportObjectModel, ptr %7, i32 0, i32 2
  %17 = getelementptr inbounds %struct._export_object_list_t, ptr %16, i32 0, i32 1
  store ptr @_ZL21object_list_get_entryPvi, ptr %17, align 8
  %18 = getelementptr inbounds %class.ExportObjectModel, ptr %7, i32 0, i32 3
  %19 = getelementptr inbounds %class.ExportObjectModel, ptr %7, i32 0, i32 2
  %20 = getelementptr inbounds %struct._export_object_list_t, ptr %19, i32 0, i32 2
  store ptr %18, ptr %20, align 8
  ret void
}