; Function Attrs: mustprogress uwtable
define void @_ZN17ExportObjectModelC2EP11register_eoP7QObject(ptr noundef nonnull align 8 dereferenceable(80) %0, ptr noundef %1, ptr noundef %2) unnamed_addr #0 align 2 {
  tail call void @_ZN19QAbstractTableModelC2EP7QObject(ptr noundef nonnull align 8 dereferenceable(16) %0, ptr noundef %2)
  store ptr getelementptr inbounds ({ [51 x ptr] }, ptr @_ZTV17ExportObjectModel, i64 0, i32 0, i64 2), ptr %0, align 8
  %4 = getelementptr inbounds i8, ptr %0, i64 16
  tail call void @llvm.memset.p0.i64(ptr noundef nonnull align 8 dereferenceable(24) %4, i8 0, i64 24, i1 false)
  %5 = getelementptr inbounds i8, ptr %0, i64 72
  store ptr %1, ptr %5, align 8
  %6 = getelementptr inbounds i8, ptr %0, i64 64
  store ptr %0, ptr %6, align 8
  %7 = getelementptr inbounds i8, ptr %0, i64 40
  store ptr @_ZL21object_list_add_entryPvP22_export_object_entry_t, ptr %7, align 8
  %8 = getelementptr inbounds i8, ptr %0, i64 48
  store ptr @_ZL21object_list_get_entryPvi, ptr %8, align 8
  %9 = getelementptr inbounds i8, ptr %0, i64 56
  store ptr %6, ptr %9, align 8
  ret void
}